; Function Attrs: nounwind uwtable
define dso_local zeroext i1 @is_publishable_relation(ptr noundef readonly captures(none) %0) local_unnamed_addr #0 {
  %2 = getelementptr inbounds nuw i8, ptr %0, i64 72
  %3 = load i32, ptr %2, align 8
  %4 = getelementptr inbounds nuw i8, ptr %0, i64 56
  %5 = load ptr, ptr %4, align 8
  %6 = getelementptr inbounds nuw i8, ptr %5, i64 115
  %7 = load i8, ptr %6, align 1
  switch i8 %7, label %is_publishable_class.exit [
    i8 114, label %8
    i8 112, label %8
  ]

8:                                                ; preds = %1, %1
  %9 = tail call zeroext i1 @IsCatalogRelationOid(i32 noundef %3) #6
  br i1 %9, label %is_publishable_class.exit, label %10

10:                                               ; preds = %8
  %11 = getelementptr inbounds nuw i8, ptr %5, i64 114
  %12 = load i8, ptr %11, align 2
  %13 = icmp eq i8 %12, 112
  %14 = icmp ugt i32 %3, 16383
  %spec.select.i = and i1 %14, %13
  br label %is_publishable_class.exit

is_publishable_class.exit:                        ; preds = %1, %8, %10
  %15 = phi i1 [ false, %8 ], [ false, %1 ], [ %spec.select.i, %10 ]
  ret i1 %15
}